target datalayout = "e-m:e-p270:32:32-p271:32:32-p272:64:64-i64:64-i128:128-f80:128-n8:16:32:64-S128"
target triple = "x86_64-pc-linux-gnu"

%class.SettingDialog = type { %class.QDialog, ptr, ptr, ptr, %class.RichParameterListFrame, ptr, ptr, ptr, ptr, ptr, ptr }
%class.QDialog = type { %class.QWidget }
%class.QWidget = type { %class.QObject, %class.QPaintDevice, ptr }
%class.QObject = type { ptr, %class.QScopedPointer }
%class.QScopedPointer = type { ptr }
%class.QPaintDevice = type { ptr, i16, ptr }
%class.RichParameterListFrame = type { %class.QFrame, %class.RichParameterList, %"class.std::map", i8, ptr, i8, %"class.std::set", ptr }
%class.QFrame = type { %class.QWidget }
%class.RichParameterList = type { %"class.std::__cxx11::list" }
%"class.std::__cxx11::list" = type { %"class.std::__cxx11::_List_base" }
%"class.std::__cxx11::_List_base" = type { %"struct.std::__cxx11::_List_base<RichParameter *, std::allocator<RichParameter *>>::_List_impl" }
%"struct.std::__cxx11::_List_base<RichParameter *, std::allocator<RichParameter *>>::_List_impl" = type { %"struct.std::__detail::_List_node_header" }
%"struct.std::__detail::_List_node_header" = type { %"struct.std::__detail::_List_node_base", i64 }
%"struct.std::__detail::_List_node_base" = type { ptr, ptr }
%"class.std::map" = type { %"class.std::_Rb_tree" }
%"class.std::_Rb_tree" = type { %"struct.std::_Rb_tree<QString, std::pair<const QString, RichParameterWidget *>, std::_Select1st<std::pair<const QString, RichParameterWidget *>>, std::less<QString>>::_Rb_tree_impl" }
%"struct.std::_Rb_tree<QString, std::pair<const QString, RichParameterWidget *>, std::_Select1st<std::pair<const QString, RichParameterWidget *>>, std::less<QString>>::_Rb_tree_impl" = type { %"struct.std::_Rb_tree_key_compare", %"struct.std::_Rb_tree_header" }
%"struct.std::_Rb_tree_key_compare" = type { %"struct.std::less" }
%"struct.std::less" = type { i8 }
%"struct.std::_Rb_tree_header" = type { %"struct.std::_Rb_tree_node_base", i64 }
%"struct.std::_Rb_tree_node_base" = type { i32, ptr, ptr, ptr }
%"class.std::set" = type { %"class.std::_Rb_tree.4" }
%"class.std::_Rb_tree.4" = type { %"struct.std::_Rb_tree<QString, QString, std::_Identity<QString>, std::less<QString>>::_Rb_tree_impl" }
%"struct.std::_Rb_tree<QString, QString, std::_Identity<QString>, std::less<QString>>::_Rb_tree_impl" = type { %"struct.std::_Rb_tree_key_compare", %"struct.std::_Rb_tree_header" }

@_ZTV13SettingDialog = external unnamed_addr constant { [59 x ptr], [10 x ptr] }, align 8

; Function Attrs: mustprogress nounwind uwtable
define void @_ZN13SettingDialogD2Ev(ptr noundef nonnull align 8 dereferenceable(320) %0) unnamed_addr #4 align 2 {
  %2 = alloca ptr, align 8
  store ptr %0, ptr %2, align 8
  %3 = load ptr, ptr %2, align 8
  store ptr getelementptr inbounds ({ [59 x ptr], [10 x ptr] }, ptr @_ZTV13SettingDialog, i32 0, i32 0, i32 2), ptr %3, align 8
  %4 = getelementptr inbounds i8, ptr %3, i64 16
  store ptr getelementptr inbounds ({ [59 x ptr], [10 x ptr] }, ptr @_ZTV13SettingDialog, i32 0, i32 1, i32 2), ptr %4, align 8
  %5 = getelementptr inbounds %class.SettingDialog, ptr %3, i32 0, i32 1
  %6 = load ptr, ptr %5, align 8
  %7 = icmp eq ptr %6, null
  br i1 %7, label %12, label %8

8:                                                ; preds = %1
  %9 = load ptr, ptr %6, align 8
  %10 = getelementptr inbounds ptr, ptr %9, i64 1
  %11 = load ptr, ptr %10, align 8
  call void %11(ptr noundef nonnull align 8 dereferenceable(56) %6) #3
  br label %12

12:                                               ; preds = %8, %1
  %13 = getelementptr inbounds %class.SettingDialog, ptr %3, i32 0, i32 2
  %14 = load ptr, ptr %13, align 8
  %15 = icmp eq ptr %14, null
  br i1 %15, label %20, label %16

16:                                               ; preds = %12
  %17 = load ptr, ptr %14, align 8
  %18 = getelementptr inbounds ptr, ptr %17, i64 1
  %19 = load ptr, ptr %18, align 8
  call void %19(ptr noundef nonnull align 8 dereferenceable(56) %14) #3
  br label %20

20:                                               ; preds = %16, %12
  %21 = getelementptr inbounds %class.SettingDialog, ptr %3, i32 0, i32 4
  call void @_ZN22RichParameterListFrameD1Ev(ptr noundef nonnull align 8 dereferenceable(200) %21) #3
  call void @_ZN7QDialogD2Ev(ptr noundef nonnull align 8 dereferenceable(48) %3) #3
  ret void
}