; Function Attrs: mustprogress nounwind uwtable
define void @_ZN13SettingDialogD2Ev(ptr noundef nonnull align 8 dereferenceable(320) %0) unnamed_addr #5 align 2 {
  store ptr getelementptr inbounds ({ [59 x ptr], [10 x ptr] }, ptr @_ZTV13SettingDialog, i64 0, i32 0, i64 2), ptr %0, align 8
  %2 = getelementptr inbounds i8, ptr %0, i64 16
  store ptr getelementptr inbounds ({ [59 x ptr], [10 x ptr] }, ptr @_ZTV13SettingDialog, i64 0, i32 1, i64 2), ptr %2, align 8
  %3 = getelementptr inbounds i8, ptr %0, i64 48
  %4 = load ptr, ptr %3, align 8
  %5 = icmp eq ptr %4, null
  br i1 %5, label %10, label %6

6:                                                ; preds = %1
  %7 = load ptr, ptr %4, align 8
  %8 = getelementptr inbounds i8, ptr %7, i64 8
  %9 = load ptr, ptr %8, align 8
  tail call void %9(ptr noundef nonnull align 8 dereferenceable(56) %4) #11
  br label %10

10:                                               ; preds = %6, %1
  %11 = getelementptr inbounds i8, ptr %0, i64 56
  %12 = load ptr, ptr %11, align 8
  %13 = icmp eq ptr %12, null
  br i1 %13, label %18, label %14

14:                                               ; preds = %10
  %15 = load ptr, ptr %12, align 8
  %16 = getelementptr inbounds i8, ptr %15, i64 8
  %17 = load ptr, ptr %16, align 8
  tail call void %17(ptr noundef nonnull align 8 dereferenceable(56) %12) #11
  br label %18

18:                                               ; preds = %14, %10
  %19 = getelementptr inbounds i8, ptr %0, i64 72
  tail call void @_ZN22RichParameterListFrameD1Ev(ptr noundef nonnull align 8 dereferenceable(200) %19) #11
  tail call void @_ZN7QDialogD2Ev(ptr noundef nonnull align 8 dereferenceable(48) %0) #11
  ret void
}